; Function Attrs: uwtable
define void @_ZThn8_N6icu_758numparse4impl26AffixPatternMatcherBuilder10addMatcherERNS1_18NumberParseMatcherE(ptr nocapture noundef %this, ptr noundef nonnull align 8 dereferenceable(8) %matcher) unnamed_addr #9 align 2 {
entry:
  %fMatchersLen.i = getelementptr inbounds i8, ptr %this, i64 48
  %0 = load i32, ptr %fMatchersLen.i, align 8
  %fMatchers.i = getelementptr inbounds i8, ptr %this, i64 8
  %capacity.i.i = getelementptr inbounds i8, ptr %this, i64 16
  %1 = load i32, ptr %capacity.i.i, align 8
  %cmp.not.i = icmp slt i32 %0, %1
  br i1 %cmp.not.i, label %_ZN6icu_758numparse4impl26AffixPatternMatcherBuilder10addMatcherERNS1_18NumberParseMatcherE.exit, label %if.then.i

if.then.i:                                        ; preds = %entry
  %mul.i = shl nsw i32 %0, 1
  %cmp.i.i = icmp sgt i32 %0, 0
  br i1 %cmp.i.i, label %if.then.i.i, label %_ZN6icu_758numparse4impl26AffixPatternMatcherBuilder10addMatcherERNS1_18NumberParseMatcherE.exit

if.then.i.i:                                      ; preds = %if.then.i
  %conv.i.i = zext nneg i32 %mul.i to i64
  %mul.i.i = shl nuw nsw i64 %conv.i.i, 3
  %call.i.i = tail call noalias ptr @uprv_malloc_75(i64 noundef %mul.i.i) #17
  %cmp2.not.i.i = icmp eq ptr %call.i.i, null
  br i1 %cmp2.not.i.i, label %_ZN6icu_758numparse4impl26AffixPatternMatcherBuilder10addMatcherERNS1_18NumberParseMatcherE.exit, label %if.then5.i.i

if.then5.i.i:                                     ; preds = %if.then.i.i
  %2 = load i32, ptr %capacity.i.i, align 8
  %spec.select.i.i = tail call i32 @llvm.smin.i32(i32 %2, i32 %0)
  %length.addr.1.i.i = tail call i32 @llvm.smin.i32(i32 %spec.select.i.i, i32 %mul.i)
  %3 = load ptr, ptr %fMatchers.i, align 8
  %conv12.i.i = sext i32 %length.addr.1.i.i to i64
  %mul13.i.i = shl nsw i64 %conv12.i.i, 3
  tail call void @llvm.memcpy.p0.p0.i64(ptr nonnull align 8 %call.i.i, ptr align 8 %3, i64 %mul13.i.i, i1 false)
  %needToRelease.i.i.i = getelementptr inbounds i8, ptr %this, i64 20
  %4 = load i8, ptr %needToRelease.i.i.i, align 4
  %tobool.not.i.i.i = icmp eq i8 %4, 0
  br i1 %tobool.not.i.i.i, label %_ZN6icu_7515MaybeStackArrayIPKNS_8numparse4impl18NumberParseMatcherELi3EE12releaseArrayEv.exit.i.i, label %if.then.i.i.i

if.then.i.i.i:                                    ; preds = %if.then5.i.i
  tail call void @uprv_free_75(ptr noundef %3)
  br label %_ZN6icu_7515MaybeStackArrayIPKNS_8numparse4impl18NumberParseMatcherELi3EE12releaseArrayEv.exit.i.i

_ZN6icu_7515MaybeStackArrayIPKNS_8numparse4impl18NumberParseMatcherELi3EE12releaseArrayEv.exit.i.i: ; preds = %if.then.i.i.i, %if.then5.i.i
  store ptr %call.i.i, ptr %fMatchers.i, align 8
  store i32 %mul.i, ptr %capacity.i.i, align 8
  store i8 1, ptr %needToRelease.i.i.i, align 4
  br label %_ZN6icu_758numparse4impl26AffixPatternMatcherBuilder10addMatcherERNS1_18NumberParseMatcherE.exit

_ZN6icu_758numparse4impl26AffixPatternMatcherBuilder10addMatcherERNS1_18NumberParseMatcherE.exit: ; preds = %entry, %if.then.i, %if.then.i.i, %_ZN6icu_7515MaybeStackArrayIPKNS_8numparse4impl18NumberParseMatcherELi3EE12releaseArrayEv.exit.i.i
  %5 = load i32, ptr %fMatchersLen.i, align 8
  %inc.i = add nsw i32 %5, 1
  store i32 %inc.i, ptr %fMatchersLen.i, align 8
  %conv.i = sext i32 %5 to i64
  %6 = load ptr, ptr %fMatchers.i, align 8
  %arrayidx.i.i = getelementptr inbounds ptr, ptr %6, i64 %conv.i
  store ptr %matcher, ptr %arrayidx.i.i, align 8
  ret void
}